; Function Attrs: mustprogress uwtable
define internal noundef zeroext i1 @_ZNK8facebook3jsi20WithRuntimeDecoratorINS0_6detail8WithLockINS_6hermes17HermesRuntimeImplENS4_12_GLOBAL__N_111HermesMutexEEES5_NS0_17ThreadSafeRuntimeEE12strictEqualsERKNS0_6ObjectESD_(ptr nocapture noundef nonnull readonly align 8 dereferenceable(32) %this, ptr nocapture noundef nonnull readonly align 8 dereferenceable(8) %a, ptr nocapture noundef nonnull readonly align 8 dereferenceable(8) %b) unnamed_addr #0 align 2 personality ptr @__gxx_personality_v0 {
entry:
  %with_ = getelementptr inbounds i8, ptr %this, i64 24
  %0 = load ptr, ptr %with_, align 8
  %call1.i.i.i.i.i.i = tail call noundef i32 @pthread_mutex_lock(ptr noundef nonnull %0) #37
  %tobool.not.i.i.i.i = icmp eq i32 %call1.i.i.i.i.i.i, 0
  br i1 %tobool.not.i.i.i.i, label %invoke.cont, label %if.then.i.i.i.i

if.then.i.i.i.i:                                  ; preds = %entry
  tail call void @_ZSt20__throw_system_errori(i32 noundef %call1.i.i.i.i.i.i) #39
  unreachable

invoke.cont:                                      ; preds = %entry
  %1 = load ptr, ptr %a, align 8
  %2 = getelementptr inbounds i8, ptr %1, i64 16
  %3 = load i64, ptr %2, align 8
  %4 = load ptr, ptr %b, align 8
  %5 = getelementptr inbounds i8, ptr %4, i64 16
  %6 = load i64, ptr %5, align 8
  %cmp.i.i = icmp eq i64 %3, %6
  %call1.i.i.i.i.i.i2 = tail call noundef i32 @pthread_mutex_unlock(ptr noundef nonnull %0) #37
  ret i1 %cmp.i.i
}